target datalayout = "e-m:e-p270:32:32-p271:32:32-p272:64:64-i64:64-i128:128-f80:128-n8:16:32:64-S128"
target triple = "x86_64-pc-linux-gnu"

%struct.redisReply = type { i32, i64, double, i64, ptr, [4 x i8], i64, ptr }

@helpEntries = internal global ptr null, align 8

; Function Attrs: nounwind uwtable
define dso_local void @cliInitCommandHelpEntries(ptr noundef %0, ptr noundef %1) #0 {
  %3 = alloca ptr, align 8
  %4 = alloca ptr, align 8
  %5 = alloca ptr, align 8
  %6 = alloca i64, align 8
  %7 = alloca ptr, align 8
  %8 = alloca ptr, align 8
  store ptr %0, ptr %3, align 8, !tbaa !46
  store ptr %1, ptr %4, align 8, !tbaa !23
  call void @llvm.lifetime.start.p0(i64 8, ptr %5) #15
  %9 = load ptr, ptr @helpEntries, align 8, !tbaa !16
  store ptr %9, ptr %5, align 8, !tbaa !16
  call void @llvm.lifetime.start.p0(i64 8, ptr %6) #15
  store i64 0, ptr %6, align 8, !tbaa !27
  br label %10

10:                                               ; preds = %38, %2
  %11 = load i64, ptr %6, align 8, !tbaa !27
  %12 = load ptr, ptr %3, align 8, !tbaa !46
  %13 = getelementptr inbounds nuw %struct.redisReply, ptr %12, i32 0, i32 6
  %14 = load i64, ptr %13, align 8, !tbaa !48
  %15 = icmp ult i64 %11, %14
  br i1 %15, label %17, label %16

16:                                               ; preds = %10
  call void @llvm.lifetime.end.p0(i64 8, ptr %6) #15
  br label %41

17:                                               ; preds = %10
  call void @llvm.lifetime.start.p0(i64 8, ptr %7) #15
  %18 = load ptr, ptr %3, align 8, !tbaa !46
  %19 = getelementptr inbounds nuw %struct.redisReply, ptr %18, i32 0, i32 7
  %20 = load ptr, ptr %19, align 8, !tbaa !53
  %21 = load i64, ptr %6, align 8, !tbaa !27
  %22 = getelementptr inbounds nuw ptr, ptr %20, i64 %21
  %23 = load ptr, ptr %22, align 8, !tbaa !46
  %24 = getelementptr inbounds nuw %struct.redisReply, ptr %23, i32 0, i32 4
  %25 = load ptr, ptr %24, align 8, !tbaa !54
  store ptr %25, ptr %7, align 8, !tbaa !5
  call void @llvm.lifetime.start.p0(i64 8, ptr %8) #15
  %26 = load ptr, ptr %3, align 8, !tbaa !46
  %27 = getelementptr inbounds nuw %struct.redisReply, ptr %26, i32 0, i32 7
  %28 = load ptr, ptr %27, align 8, !tbaa !53
  %29 = load i64, ptr %6, align 8, !tbaa !27
  %30 = add i64 %29, 1
  %31 = getelementptr inbounds nuw ptr, ptr %28, i64 %30
  %32 = load ptr, ptr %31, align 8, !tbaa !46
  store ptr %32, ptr %8, align 8, !tbaa !46
  %33 = load ptr, ptr %7, align 8, !tbaa !5
  %34 = load ptr, ptr %5, align 8, !tbaa !16
  %35 = load ptr, ptr %8, align 8, !tbaa !46
  %36 = load ptr, ptr %4, align 8, !tbaa !23
  %37 = call ptr @cliInitCommandHelpEntry(ptr noundef %33, ptr noundef null, ptr noundef %34, ptr noundef %35, ptr noundef %36)
  store ptr %37, ptr %5, align 8, !tbaa !16
  call void @llvm.lifetime.end.p0(i64 8, ptr %8) #15
  call void @llvm.lifetime.end.p0(i64 8, ptr %7) #15
  br label %38

38:                                               ; preds = %17
  %39 = load i64, ptr %6, align 8, !tbaa !27
  %40 = add i64 %39, 2
  store i64 %40, ptr %6, align 8, !tbaa !27
  br label %10, !llvm.loop !55

41:                                               ; preds = %16
  call void @llvm.lifetime.end.p0(i64 8, ptr %5) #15
  ret void
}