; Function Attrs: nounwind uwtable
define dso_local void @cliInitCommandHelpEntries(ptr noundef readonly captures(none) %0, ptr noundef %1) local_unnamed_addr #0 {
  %3 = getelementptr inbounds nuw i8, ptr %0, i64 48
  %4 = load i64, ptr %3, align 8, !tbaa !28
  %.not = icmp eq i64 %4, 0
  br i1 %.not, label %._crit_edge, label %.lr.ph

.lr.ph:                                           ; preds = %2
  %5 = load ptr, ptr @helpEntries, align 8, !tbaa !23
  %6 = getelementptr inbounds nuw i8, ptr %0, i64 56
  br label %7

._crit_edge:                                      ; preds = %7, %2
  ret void

7:                                                ; preds = %.lr.ph, %7
  %.012 = phi ptr [ %5, %.lr.ph ], [ %16, %7 ]
  %.01011 = phi i64 [ 0, %.lr.ph ], [ %17, %7 ]
  %8 = load ptr, ptr %6, align 8, !tbaa !33
  %9 = getelementptr inbounds nuw ptr, ptr %8, i64 %.01011
  %10 = load ptr, ptr %9, align 8, !tbaa !34
  %11 = getelementptr inbounds nuw i8, ptr %10, i64 32
  %12 = load ptr, ptr %11, align 8, !tbaa !36
  %13 = or disjoint i64 %.01011, 1
  %14 = getelementptr inbounds nuw ptr, ptr %8, i64 %13
  %15 = load ptr, ptr %14, align 8, !tbaa !34
  %16 = tail call fastcc ptr @cliInitCommandHelpEntry(ptr noundef %12, ptr noundef null, ptr noundef %.012, ptr noundef %15, ptr noundef %1)
  %17 = add i64 %.01011, 2
  %18 = load i64, ptr %3, align 8, !tbaa !28
  %19 = icmp ult i64 %17, %18
  br i1 %19, label %7, label %._crit_edge, !llvm.loop !37
}